; Function Attrs: nounwind uwtable
define internal range(i32 -1, 2) i32 @H5I__iterate_pub_cb(ptr nocapture readnone %0, i64 noundef %1, ptr nocapture noundef readonly %2) #0 {
  %4 = load ptr, ptr %2, align 8
  %5 = getelementptr inbounds i8, ptr %2, i64 8
  %6 = load ptr, ptr %5, align 8
  %7 = tail call i32 %4(i64 noundef %1, ptr noundef %6) #3
  %.lobit = ashr i32 %7, 31
  %.inv = icmp slt i32 %7, 1
  %.0 = select i1 %.inv, i32 %.lobit, i32 1
  ret i32 %.0
}